target datalayout = "e-m:e-p270:32:32-p271:32:32-p272:64:64-i64:64-i128:128-f80:128-n8:16:32:64-S128"
target triple = "x86_64-pc-linux-gnu"

%struct.AVProbeData = type { ptr, ptr, i32, ptr }
%struct.AVFormatContext = type { ptr, ptr, ptr, ptr, ptr, i32, i32, ptr, i32, ptr, i32, ptr, ptr, i64, i64, i64, i32, i32, i32, i64, i64, ptr, i32, i32, ptr, i32, i32, i32, i32, ptr, i64, i32, i32, %struct.AVIOInterruptCB, i32, i32, i32, i32, i64, i32, i32, i32, i32, i32, i32, i32, i32, i32, i32, i32, i32, i64, i32, i32, i32, i32, i32, ptr, ptr, ptr, ptr, i32, ptr, ptr, ptr, ptr, i32, ptr, ptr, i64, ptr, ptr, ptr, i64 }
%struct.AVIOInterruptCB = type { ptr, ptr }
%struct.voc_dec_context = type { i64, i64 }
%struct.AVStream = type { ptr, i32, i32, ptr, ptr, %struct.AVRational, i64, i64, i64, i32, i32, %struct.AVRational, ptr, %struct.AVRational, %struct.AVPacket, i32, %struct.AVRational, i32 }
%struct.AVPacket = type { ptr, i64, i64, ptr, i32, i32, i32, ptr, i32, i64, i64, ptr, ptr, %struct.AVRational }
%struct.AVRational = type { i32, i32 }
%struct.FFStream = type { %struct.AVStream, ptr, i32, ptr, i32, ptr, i32, %struct.anon, i32, i32, %struct.FFFrac, ptr, ptr, i32, i32, i64, i64, i32, i32, i32, i64, i64, i64, i32, i64, i64, i64, i32, i32, [17 x i64], [17 x i8], [17 x i64], i64, i8, i8, %struct.AVRational, %struct.AVProbeData, ptr, i64, i32, i32, i32, ptr, i32, i32, i64, i64, ptr, %struct.AVRational }
%struct.anon = type { ptr, i32 }
%struct.FFFrac = type { i64, i64, i64 }
%struct.AVIndexEntry = type { i64, i64, i32, i32 }

@.str.3 = private unnamed_addr constant [43 x i8] c"cannot seek while no stream was found yet\0A\00", align 1

; Function Attrs: alwaysinline nounwind uwtable
define internal ptr @ffstream(ptr noundef %0) #4 {
  %2 = alloca ptr, align 8
  store ptr %0, ptr %2, align 8, !tbaa !42
  %3 = load ptr, ptr %2, align 8, !tbaa !42
  ret ptr %3
}

; Function Attrs: nounwind uwtable
define internal i32 @voc_read_seek(ptr noundef %0, i32 noundef %1, i64 noundef %2, i32 noundef %3) #0 {
  %5 = alloca i32, align 4
  %6 = alloca ptr, align 8
  %7 = alloca i32, align 4
  %8 = alloca i64, align 8
  %9 = alloca i32, align 4
  %10 = alloca ptr, align 8
  %11 = alloca ptr, align 8
  %12 = alloca ptr, align 8
  %13 = alloca i32, align 4
  %14 = alloca i32, align 4
  %15 = alloca ptr, align 8
  %16 = alloca ptr, align 8
  store ptr %0, ptr %6, align 8, !tbaa !15
  store i32 %1, ptr %7, align 4, !tbaa !14
  store i64 %2, ptr %8, align 8, !tbaa !55
  store i32 %3, ptr %9, align 4, !tbaa !14
  call void @llvm.lifetime.start.p0(i64 8, ptr %10) #5
  %17 = load ptr, ptr %6, align 8, !tbaa !15
  %18 = getelementptr inbounds nuw %struct.AVFormatContext, ptr %17, i32 0, i32 3
  %19 = load ptr, ptr %18, align 8, !tbaa !17
  store ptr %19, ptr %10, align 8, !tbaa !32
  call void @llvm.lifetime.start.p0(i64 8, ptr %11) #5
  call void @llvm.lifetime.start.p0(i64 8, ptr %12) #5
  call void @llvm.lifetime.start.p0(i64 4, ptr %13) #5
  %20 = load ptr, ptr %6, align 8, !tbaa !15
  %21 = getelementptr inbounds nuw %struct.AVFormatContext, ptr %20, i32 0, i32 6
  %22 = load i32, ptr %21, align 4, !tbaa !41
  %23 = icmp ult i32 %22, 1
  br i1 %23, label %24, label %26

24:                                               ; preds = %4
  %25 = load ptr, ptr %6, align 8, !tbaa !15
  call void (ptr, i32, ptr, ...) @av_log(ptr noundef %25, i32 noundef 16, ptr noundef @.str.3)
  store i32 -22, ptr %5, align 4
  store i32 1, ptr %14, align 4
  br label %113

26:                                               ; preds = %4
  %27 = load ptr, ptr %6, align 8, !tbaa !15
  %28 = getelementptr inbounds nuw %struct.AVFormatContext, ptr %27, i32 0, i32 7
  %29 = load ptr, ptr %28, align 8, !tbaa !54
  %30 = load i32, ptr %7, align 4, !tbaa !14
  %31 = sext i32 %30 to i64
  %32 = getelementptr inbounds ptr, ptr %29, i64 %31
  %33 = load ptr, ptr %32, align 8, !tbaa !42
  store ptr %33, ptr %11, align 8, !tbaa !42
  %34 = load ptr, ptr %11, align 8, !tbaa !42
  %35 = call ptr @ffstream(ptr noundef %34)
  store ptr %35, ptr %12, align 8, !tbaa !56
  %36 = load ptr, ptr %11, align 8, !tbaa !42
  %37 = load i64, ptr %8, align 8, !tbaa !55
  %38 = load i32, ptr %9, align 4, !tbaa !14
  %39 = call i32 @av_index_search_timestamp(ptr noundef %36, i64 noundef %37, i32 noundef %38)
  store i32 %39, ptr %13, align 4, !tbaa !14
  %40 = load i32, ptr %13, align 4, !tbaa !14
  %41 = icmp sge i32 %40, 0
  br i1 %41, label %42, label %75

42:                                               ; preds = %26
  %43 = load i32, ptr %13, align 4, !tbaa !14
  %44 = load ptr, ptr %12, align 8, !tbaa !56
  %45 = getelementptr inbounds nuw %struct.FFStream, ptr %44, i32 0, i32 13
  %46 = load i32, ptr %45, align 8, !tbaa !58
  %47 = sub nsw i32 %46, 1
  %48 = icmp slt i32 %43, %47
  br i1 %48, label %49, label %75

49:                                               ; preds = %42
  call void @llvm.lifetime.start.p0(i64 8, ptr %15) #5
  %50 = load ptr, ptr %12, align 8, !tbaa !56
  %51 = getelementptr inbounds nuw %struct.FFStream, ptr %50, i32 0, i32 12
  %52 = load ptr, ptr %51, align 8, !tbaa !69
  %53 = load i32, ptr %13, align 4, !tbaa !14
  %54 = sext i32 %53 to i64
  %55 = getelementptr inbounds %struct.AVIndexEntry, ptr %52, i64 %54
  store ptr %55, ptr %15, align 8, !tbaa !70
  %56 = load ptr, ptr %6, align 8, !tbaa !15
  %57 = getelementptr inbounds nuw %struct.AVFormatContext, ptr %56, i32 0, i32 4
  %58 = load ptr, ptr %57, align 8, !tbaa !34
  %59 = load ptr, ptr %15, align 8, !tbaa !70
  %60 = getelementptr inbounds nuw %struct.AVIndexEntry, ptr %59, i32 0, i32 0
  %61 = load i64, ptr %60, align 8, !tbaa !71
  %62 = call i64 @avio_seek(ptr noundef %58, i64 noundef %61, i32 noundef 0)
  %63 = load ptr, ptr %15, align 8, !tbaa !70
  %64 = getelementptr inbounds nuw %struct.AVIndexEntry, ptr %63, i32 0, i32 1
  %65 = load i64, ptr %64, align 8, !tbaa !73
  %66 = load ptr, ptr %10, align 8, !tbaa !32
  %67 = getelementptr inbounds nuw %struct.voc_dec_context, ptr %66, i32 0, i32 1
  store i64 %65, ptr %67, align 8, !tbaa !74
  %68 = load ptr, ptr %15, align 8, !tbaa !70
  %69 = getelementptr inbounds nuw %struct.AVIndexEntry, ptr %68, i32 0, i32 2
  %70 = load i32, ptr %69, align 8
  %71 = ashr i32 %70, 2
  %72 = sext i32 %71 to i64
  %73 = load ptr, ptr %10, align 8, !tbaa !32
  %74 = getelementptr inbounds nuw %struct.voc_dec_context, ptr %73, i32 0, i32 0
  store i64 %72, ptr %74, align 8, !tbaa !37
  store i32 0, ptr %5, align 4
  store i32 1, ptr %14, align 4
  call void @llvm.lifetime.end.p0(i64 8, ptr %15) #5
  br label %113

75:                                               ; preds = %42, %26
  %76 = load ptr, ptr %12, align 8, !tbaa !56
  %77 = getelementptr inbounds nuw %struct.FFStream, ptr %76, i32 0, i32 13
  %78 = load i32, ptr %77, align 8, !tbaa !58
  %79 = icmp ne i32 %78, 0
  br i1 %79, label %80, label %111

80:                                               ; preds = %75
  %81 = load ptr, ptr %12, align 8, !tbaa !56
  %82 = getelementptr inbounds nuw %struct.FFStream, ptr %81, i32 0, i32 12
  %83 = load ptr, ptr %82, align 8, !tbaa !69
  %84 = getelementptr inbounds %struct.AVIndexEntry, ptr %83, i64 0
  %85 = getelementptr inbounds nuw %struct.AVIndexEntry, ptr %84, i32 0, i32 1
  %86 = load i64, ptr %85, align 8, !tbaa !73
  %87 = load i64, ptr %8, align 8, !tbaa !55
  %88 = icmp sle i64 %86, %87
  br i1 %88, label %89, label %111

89:                                               ; preds = %80
  call void @llvm.lifetime.start.p0(i64 8, ptr %16) #5
  %90 = load ptr, ptr %12, align 8, !tbaa !56
  %91 = getelementptr inbounds nuw %struct.FFStream, ptr %90, i32 0, i32 12
  %92 = load ptr, ptr %91, align 8, !tbaa !69
  %93 = load ptr, ptr %12, align 8, !tbaa !56
  %94 = getelementptr inbounds nuw %struct.FFStream, ptr %93, i32 0, i32 13
  %95 = load i32, ptr %94, align 8, !tbaa !58
  %96 = sub nsw i32 %95, 1
  %97 = sext i32 %96 to i64
  %98 = getelementptr inbounds %struct.AVIndexEntry, ptr %92, i64 %97
  store ptr %98, ptr %16, align 8, !tbaa !70
  %99 = load ptr, ptr %16, align 8, !tbaa !70
  %100 = getelementptr inbounds nuw %struct.AVIndexEntry, ptr %99, i32 0, i32 1
  %101 = load i64, ptr %100, align 8, !tbaa !73
  %102 = load ptr, ptr %10, align 8, !tbaa !32
  %103 = getelementptr inbounds nuw %struct.voc_dec_context, ptr %102, i32 0, i32 1
  store i64 %101, ptr %103, align 8, !tbaa !74
  %104 = load ptr, ptr %16, align 8, !tbaa !70
  %105 = getelementptr inbounds nuw %struct.AVIndexEntry, ptr %104, i32 0, i32 2
  %106 = load i32, ptr %105, align 8
  %107 = ashr i32 %106, 2
  %108 = sext i32 %107 to i64
  %109 = load ptr, ptr %10, align 8, !tbaa !32
  %110 = getelementptr inbounds nuw %struct.voc_dec_context, ptr %109, i32 0, i32 0
  store i64 %108, ptr %110, align 8, !tbaa !37
  call void @llvm.lifetime.end.p0(i64 8, ptr %16) #5
  br label %111

111:                                              ; preds = %89, %80, %75
  br label %112

112:                                              ; preds = %111
  store i32 -1, ptr %5, align 4
  store i32 1, ptr %14, align 4
  br label %113

113:                                              ; preds = %112, %49, %24
  call void @llvm.lifetime.end.p0(i64 4, ptr %13) #5
  call void @llvm.lifetime.end.p0(i64 8, ptr %12) #5
  call void @llvm.lifetime.end.p0(i64 8, ptr %11) #5
  call void @llvm.lifetime.end.p0(i64 8, ptr %10) #5
  %114 = load i32, ptr %5, align 4
  ret i32 %114
}