; Function Attrs: nounwind uwtable
define internal range(i32 -22, 1) i32 @voc_read_seek(ptr noundef %0, i32 noundef %1, i64 noundef %2, i32 noundef %3) #1 {
  %5 = getelementptr inbounds nuw i8, ptr %0, i64 24
  %6 = load ptr, ptr %5, align 8, !tbaa !12
  %7 = getelementptr inbounds nuw i8, ptr %0, i64 44
  %8 = load i32, ptr %7, align 4, !tbaa !31
  %9 = icmp eq i32 %8, 0
  br i1 %9, label %10, label %11

10:                                               ; preds = %4
  tail call void (ptr, i32, ptr, ...) @av_log(ptr noundef nonnull %0, i32 noundef 16, ptr noundef nonnull @.str.3) #4
  br label %54

11:                                               ; preds = %4
  %12 = getelementptr inbounds nuw i8, ptr %0, i64 48
  %13 = load ptr, ptr %12, align 8, !tbaa !42
  %14 = sext i32 %1 to i64
  %15 = getelementptr inbounds ptr, ptr %13, i64 %14
  %16 = load ptr, ptr %15, align 8, !tbaa !43
  %17 = tail call i32 @av_index_search_timestamp(ptr noundef %16, i64 noundef %2, i32 noundef %3) #4
  %18 = icmp sgt i32 %17, -1
  %19 = getelementptr inbounds nuw i8, ptr %16, i64 328
  %20 = load i32, ptr %19, align 8, !tbaa !45
  %21 = add nsw i32 %20, -1
  %22 = icmp slt i32 %17, %21
  %or.cond = select i1 %18, i1 %22, i1 false
  br i1 %or.cond, label %23, label %._crit_edge

23:                                               ; preds = %11
  %24 = getelementptr inbounds nuw i8, ptr %16, i64 320
  %25 = load ptr, ptr %24, align 8, !tbaa !57
  %26 = zext nneg i32 %17 to i64
  %27 = getelementptr inbounds nuw %struct.AVIndexEntry, ptr %25, i64 %26
  %28 = getelementptr inbounds nuw i8, ptr %0, i64 32
  %29 = load ptr, ptr %28, align 8, !tbaa !27
  %30 = load i64, ptr %27, align 8, !tbaa !58
  %31 = tail call i64 @avio_seek(ptr noundef %29, i64 noundef %30, i32 noundef 0) #4
  %32 = getelementptr inbounds nuw i8, ptr %27, i64 8
  %33 = load i64, ptr %32, align 8, !tbaa !60
  %34 = getelementptr inbounds nuw i8, ptr %6, i64 8
  store i64 %33, ptr %34, align 8, !tbaa !61
  %35 = getelementptr inbounds nuw i8, ptr %27, i64 16
  %36 = load i32, ptr %35, align 8
  %37 = ashr i32 %36, 2
  %38 = sext i32 %37 to i64
  store i64 %38, ptr %6, align 8, !tbaa !29
  br label %54

._crit_edge:                                      ; preds = %11
  %.not = icmp eq i32 %20, 0
  br i1 %.not, label %54, label %39

39:                                               ; preds = %._crit_edge
  %40 = getelementptr inbounds nuw i8, ptr %16, i64 320
  %41 = load ptr, ptr %40, align 8, !tbaa !57
  %42 = getelementptr inbounds nuw i8, ptr %41, i64 8
  %43 = load i64, ptr %42, align 8, !tbaa !60
  %.not31 = icmp sgt i64 %43, %2
  br i1 %.not31, label %54, label %44

44:                                               ; preds = %39
  %45 = sext i32 %20 to i64
  %46 = getelementptr %struct.AVIndexEntry, ptr %41, i64 %45
  %47 = getelementptr i8, ptr %46, i64 -16
  %48 = load i64, ptr %47, align 8, !tbaa !60
  %49 = getelementptr inbounds nuw i8, ptr %6, i64 8
  store i64 %48, ptr %49, align 8, !tbaa !61
  %50 = getelementptr i8, ptr %46, i64 -8
  %51 = load i32, ptr %50, align 8
  %52 = ashr i32 %51, 2
  %53 = sext i32 %52 to i64
  store i64 %53, ptr %6, align 8, !tbaa !29
  br label %54

54:                                               ; preds = %44, %39, %._crit_edge, %23, %10
  %.0 = phi i32 [ -22, %10 ], [ 0, %23 ], [ -1, %._crit_edge ], [ -1, %39 ], [ -1, %44 ]
  ret i32 %.0
}